target datalayout = "e-m:e-p270:32:32-p271:32:32-p272:64:64-i64:64-i128:128-f80:128-n8:16:32:64-S128"
target triple = "x86_64-unknown-linux-gnu"

%"class.icu_75::Formattable" = type { %"class.icu_75::UObject", %union.anon, ptr, ptr, i32, %"class.icu_75::UnicodeString" }
%"class.icu_75::UObject" = type { ptr }
%union.anon = type { %struct.anon }
%struct.anon = type { ptr, i32 }
%"class.icu_75::UnicodeString" = type { %"class.icu_75::Replaceable", %"union.icu_75::UnicodeString::StackBufferOrFields" }
%"class.icu_75::Replaceable" = type { %"class.icu_75::UObject" }
%"union.icu_75::UnicodeString::StackBufferOrFields" = type { %struct.anon.1, [32 x i8] }
%struct.anon.1 = type { i16, i32, i32, ptr }

; Function Attrs: mustprogress uwtable
define void @_ZN6icu_7511Formattable20adoptDecimalQuantityEPNS_6number4impl15DecimalQuantityE(ptr noundef nonnull align 8 dereferenceable(112) %this, ptr noundef %dq) #1 align 2 {
entry:
  %this.addr = alloca ptr, align 8
  %dq.addr = alloca ptr, align 8
  store ptr %this, ptr %this.addr, align 8
  store ptr %dq, ptr %dq.addr, align 8
  %this1 = load ptr, ptr %this.addr, align 8
  %fDecimalQuantity = getelementptr inbounds %"class.icu_75::Formattable", ptr %this1, i32 0, i32 3
  %0 = load ptr, ptr %fDecimalQuantity, align 8
  %cmp = icmp ne ptr %0, null
  br i1 %cmp, label %if.then, label %if.end

if.then:                                          ; preds = %entry
  %fDecimalQuantity2 = getelementptr inbounds %"class.icu_75::Formattable", ptr %this1, i32 0, i32 3
  %1 = load ptr, ptr %fDecimalQuantity2, align 8
  %isnull = icmp eq ptr %1, null
  br i1 %isnull, label %delete.end, label %delete.notnull

delete.notnull:                                   ; preds = %if.then
  %vtable = load ptr, ptr %1, align 8
  %vfn = getelementptr inbounds ptr, ptr %vtable, i64 1
  %2 = load ptr, ptr %vfn, align 8
  call void %2(ptr noundef nonnull align 8 dereferenceable(66) %1) #10
  br label %delete.end

delete.end:                                       ; preds = %delete.notnull, %if.then
  br label %if.end

if.end:                                           ; preds = %delete.end, %entry
  %3 = load ptr, ptr %dq.addr, align 8
  %fDecimalQuantity3 = getelementptr inbounds %"class.icu_75::Formattable", ptr %this1, i32 0, i32 3
  store ptr %3, ptr %fDecimalQuantity3, align 8
  %4 = load ptr, ptr %dq.addr, align 8
  %cmp4 = icmp eq ptr %4, null
  br i1 %cmp4, label %if.then5, label %if.end6

if.then5:                                         ; preds = %if.end
  br label %if.end23

if.end6:                                          ; preds = %if.end
  %fDecimalQuantity7 = getelementptr inbounds %"class.icu_75::Formattable", ptr %this1, i32 0, i32 3
  %5 = load ptr, ptr %fDecimalQuantity7, align 8
  %call = call noundef zeroext i1 @_ZNK6icu_756number4impl15DecimalQuantity10fitsInLongEb(ptr noundef nonnull align 8 dereferenceable(66) %5, i1 noundef zeroext false)
  br i1 %call, label %if.then8, label %if.else18

if.then8:                                         ; preds = %if.end6
  %fDecimalQuantity9 = getelementptr inbounds %"class.icu_75::Formattable", ptr %this1, i32 0, i32 3
  %6 = load ptr, ptr %fDecimalQuantity9, align 8
  %call10 = call noundef i64 @_ZNK6icu_756number4impl15DecimalQuantity6toLongEb(ptr noundef nonnull align 8 dereferenceable(66) %6, i1 noundef zeroext false)
  %fValue = getelementptr inbounds %"class.icu_75::Formattable", ptr %this1, i32 0, i32 1
  store i64 %call10, ptr %fValue, align 8
  %fValue11 = getelementptr inbounds %"class.icu_75::Formattable", ptr %this1, i32 0, i32 1
  %7 = load i64, ptr %fValue11, align 8
  %cmp12 = icmp sle i64 %7, 2147483647
  br i1 %cmp12, label %land.lhs.true, label %if.else

land.lhs.true:                                    ; preds = %if.then8
  %fValue13 = getelementptr inbounds %"class.icu_75::Formattable", ptr %this1, i32 0, i32 1
  %8 = load i64, ptr %fValue13, align 8
  %cmp14 = icmp sge i64 %8, -2147483648
  br i1 %cmp14, label %if.then15, label %if.else

if.then15:                                        ; preds = %land.lhs.true
  %fType = getelementptr inbounds %"class.icu_75::Formattable", ptr %this1, i32 0, i32 4
  store i32 2, ptr %fType, align 8
  br label %if.end17

if.else:                                          ; preds = %land.lhs.true, %if.then8
  %fType16 = getelementptr inbounds %"class.icu_75::Formattable", ptr %this1, i32 0, i32 4
  store i32 5, ptr %fType16, align 8
  br label %if.end17

if.end17:                                         ; preds = %if.else, %if.then15
  br label %if.end23

if.else18:                                        ; preds = %if.end6
  %fType19 = getelementptr inbounds %"class.icu_75::Formattable", ptr %this1, i32 0, i32 4
  store i32 1, ptr %fType19, align 8
  %fDecimalQuantity20 = getelementptr inbounds %"class.icu_75::Formattable", ptr %this1, i32 0, i32 3
  %9 = load ptr, ptr %fDecimalQuantity20, align 8
  %call21 = call noundef double @_ZNK6icu_756number4impl15DecimalQuantity8toDoubleEv(ptr noundef nonnull align 8 dereferenceable(66) %9)
  %fValue22 = getelementptr inbounds %"class.icu_75::Formattable", ptr %this1, i32 0, i32 1
  store double %call21, ptr %fValue22, align 8
  br label %if.end23

if.end23:                                         ; preds = %if.else18, %if.end17, %if.then5
  ret void
}