; Function Attrs: mustprogress uwtable
define void @_ZN6icu_7511Formattable20adoptDecimalQuantityEPNS_6number4impl15DecimalQuantityE(ptr nocapture noundef nonnull align 8 dereferenceable(112) %this, ptr noundef %dq) local_unnamed_addr #1 align 2 {
entry:
  %fDecimalQuantity = getelementptr inbounds i8, ptr %this, i64 32
  %0 = load ptr, ptr %fDecimalQuantity, align 8
  %cmp.not = icmp eq ptr %0, null
  br i1 %cmp.not, label %if.end, label %delete.notnull

delete.notnull:                                   ; preds = %entry
  %vtable = load ptr, ptr %0, align 8
  %vfn = getelementptr inbounds i8, ptr %vtable, i64 8
  %1 = load ptr, ptr %vfn, align 8
  tail call void %1(ptr noundef nonnull align 8 dereferenceable(66) %0) #16
  br label %if.end

if.end:                                           ; preds = %delete.notnull, %entry
  store ptr %dq, ptr %fDecimalQuantity, align 8
  %cmp4 = icmp eq ptr %dq, null
  br i1 %cmp4, label %if.end23, label %if.end6

if.end6:                                          ; preds = %if.end
  %call = tail call noundef zeroext i1 @_ZNK6icu_756number4impl15DecimalQuantity10fitsInLongEb(ptr noundef nonnull align 8 dereferenceable(66) %dq, i1 noundef zeroext false)
  br i1 %call, label %if.then8, label %if.else18

if.then8:                                         ; preds = %if.end6
  %2 = load ptr, ptr %fDecimalQuantity, align 8
  %call10 = tail call noundef i64 @_ZNK6icu_756number4impl15DecimalQuantity6toLongEb(ptr noundef nonnull align 8 dereferenceable(66) %2, i1 noundef zeroext false)
  %fValue = getelementptr inbounds i8, ptr %this, i64 8
  store i64 %call10, ptr %fValue, align 8
  %3 = add i64 %call10, 2147483648
  %or.cond = icmp ult i64 %3, 4294967296
  %fType = getelementptr inbounds i8, ptr %this, i64 40
  br i1 %or.cond, label %if.then15, label %if.else

if.then15:                                        ; preds = %if.then8
  store i32 2, ptr %fType, align 8
  br label %if.end23

if.else:                                          ; preds = %if.then8
  store i32 5, ptr %fType, align 8
  br label %if.end23

if.else18:                                        ; preds = %if.end6
  %fType19 = getelementptr inbounds i8, ptr %this, i64 40
  store i32 1, ptr %fType19, align 8
  %4 = load ptr, ptr %fDecimalQuantity, align 8
  %call21 = tail call noundef double @_ZNK6icu_756number4impl15DecimalQuantity8toDoubleEv(ptr noundef nonnull align 8 dereferenceable(66) %4)
  %fValue22 = getelementptr inbounds i8, ptr %this, i64 8
  store double %call21, ptr %fValue22, align 8
  br label %if.end23

if.end23:                                         ; preds = %if.then15, %if.else, %if.end, %if.else18
  ret void
}